(lp0
ccopy_reg
_reconstructor
p1
(cMiniBank.Domains.Values.Event
Event
p2
c__builtin__
object
p3
Ntp4
Rp5
(dp6
S'etype'
p7
S'Create User'
p8
sS'event_id'
p9
I1
sS'value'
p10
(dp11
S'user'
p12
(dp13
S'is_person'
p14
I01
sS'accounts'
p15
(lp16
sS'uid'
p17
I1
sS'name'
p18
S'Paulo'
p19
sssbag1
(g2
g3
Ntp20
Rp21
(dp22
g7
S'Create Account'
p23
sg9
I2
sg10
(dp24
S'owner'
p25
(dp26
g14
I01
sg15
(lp27
sg17
I1
sg18
g19
ssS'account'
p28
(dp29
S'balance'
p30
I0
sS'history'
p31
(lp32
(dp33
S'kind'
p34
S'deposit'
p35
sS'amount'
p36
I0
sasS'account_id'
p37
I1
sS'owner_id'
p38
I1
sssba.